; Function Attrs: nounwind uwtable
define ptr @l_Std_Sat_AIG_toCNF_inj___boxed(ptr noundef %0, ptr noundef %1) #0 {
  %3 = ptrtoint ptr %1 to i64
  %4 = and i64 %3, 1
  %.not.i12.i = icmp eq i64 %4, 0
  br i1 %.not.i12.i, label %8, label %5

5:                                                ; preds = %2
  %6 = lshr i64 %3, 1
  %7 = trunc i64 %6 to i32
  br label %lean_obj_tag.exit.i

8:                                                ; preds = %2
  %9 = getelementptr i8, ptr %1, i64 4
  %.val.i.i = load i32, ptr %9, align 4
  %10 = lshr i32 %.val.i.i, 24
  br label %lean_obj_tag.exit.i

lean_obj_tag.exit.i:                              ; preds = %8, %5
  %.0.i13.i = phi i32 [ %7, %5 ], [ %10, %8 ]
  %11 = icmp eq i32 %.0.i13.i, 0
  %12 = getelementptr inbounds nuw i8, ptr %1, i64 8
  %13 = load ptr, ptr %12, align 8, !tbaa !9
  br i1 %11, label %14, label %35

14:                                               ; preds = %lean_obj_tag.exit.i
  %15 = getelementptr inbounds nuw i8, ptr %0, i64 8
  %16 = load ptr, ptr %15, align 8, !tbaa !9
  %17 = getelementptr i8, ptr %16, i64 8
  %.val.i = load i64, ptr %17, align 8, !tbaa !15
  %18 = ptrtoint ptr %13 to i64
  %19 = and i64 %18, 1
  %.not17.i = icmp eq i64 %19, 0
  br i1 %.not17.i, label %.critedge.i.i, label %20, !prof !17

20:                                               ; preds = %14
  %21 = and i64 %.val.i, 9223372036854775807
  %22 = lshr i64 %18, 1
  %23 = add nuw i64 %21, %22
  %24 = icmp sgt i64 %23, -1
  br i1 %24, label %25, label %29, !prof !13

25:                                               ; preds = %20
  %26 = shl nuw i64 %23, 1
  %27 = or disjoint i64 %26, 1
  %28 = inttoptr i64 %27 to ptr
  br label %l_Std_Sat_AIG_toCNF_inj.exit

29:                                               ; preds = %20
  %30 = tail call ptr @lean_big_usize_to_nat(i64 noundef range(i64 0, -1) %23) #3
  br label %l_Std_Sat_AIG_toCNF_inj.exit

.critedge.i.i:                                    ; preds = %14
  %31 = shl i64 %.val.i, 1
  %32 = or disjoint i64 %31, 1
  %33 = inttoptr i64 %32 to ptr
  %34 = tail call ptr @lean_nat_big_add(ptr noundef nonnull %33, ptr noundef %13) #3
  br label %l_Std_Sat_AIG_toCNF_inj.exit

35:                                               ; preds = %lean_obj_tag.exit.i
  %36 = ptrtoint ptr %13 to i64
  %37 = and i64 %36, 1
  %.not.i8 = icmp eq i64 %37, 0
  br i1 %.not.i8, label %38, label %l_Std_Sat_AIG_toCNF_inj.exit

38:                                               ; preds = %35
  %.val.i15.i = load i32, ptr %13, align 4, !tbaa !4
  %39 = icmp sgt i32 %.val.i15.i, 0
  br i1 %39, label %40, label %42, !prof !13

40:                                               ; preds = %38
  %41 = add nuw i32 %.val.i15.i, 1
  store i32 %41, ptr %13, align 4, !tbaa !4
  br label %l_Std_Sat_AIG_toCNF_inj.exit

42:                                               ; preds = %38
  %.not.i16.i = icmp eq i32 %.val.i15.i, 0
  br i1 %.not.i16.i, label %l_Std_Sat_AIG_toCNF_inj.exit, label %43

43:                                               ; preds = %42
  tail call void @lean_inc_ref_cold(ptr noundef nonnull %13) #3
  br label %l_Std_Sat_AIG_toCNF_inj.exit

l_Std_Sat_AIG_toCNF_inj.exit:                     ; preds = %25, %29, %.critedge.i.i, %35, %40, %42, %43
  %.0.i = phi ptr [ %34, %.critedge.i.i ], [ %28, %25 ], [ %30, %29 ], [ %13, %43 ], [ %13, %42 ], [ %13, %40 ], [ %13, %35 ]
  br i1 %.not.i12.i, label %44, label %lean_dec.exit5

44:                                               ; preds = %l_Std_Sat_AIG_toCNF_inj.exit
  %45 = load i32, ptr %1, align 4, !tbaa !4
  %46 = icmp sgt i32 %45, 1
  br i1 %46, label %47, label %49, !prof !13

47:                                               ; preds = %44
  %48 = add nsw i32 %45, -1
  store i32 %48, ptr %1, align 4, !tbaa !4
  br label %lean_dec.exit5

49:                                               ; preds = %44
  %.not.i = icmp eq i32 %45, 0
  br i1 %.not.i, label %lean_dec.exit5, label %50

50:                                               ; preds = %49
  tail call void @lean_dec_ref_cold(ptr noundef nonnull %1) #3
  br label %lean_dec.exit5

lean_dec.exit5:                                   ; preds = %50, %49, %47, %l_Std_Sat_AIG_toCNF_inj.exit
  %51 = ptrtoint ptr %0 to i64
  %52 = and i64 %51, 1
  %.not9 = icmp eq i64 %52, 0
  br i1 %.not9, label %53, label %lean_dec.exit

53:                                               ; preds = %lean_dec.exit5
  %54 = load i32, ptr %0, align 4, !tbaa !4
  %55 = icmp sgt i32 %54, 1
  br i1 %55, label %56, label %58, !prof !13

56:                                               ; preds = %53
  %57 = add nsw i32 %54, -1
  store i32 %57, ptr %0, align 4, !tbaa !4
  br label %lean_dec.exit

58:                                               ; preds = %53
  %.not.i6 = icmp eq i32 %54, 0
  br i1 %.not.i6, label %lean_dec.exit, label %59

59:                                               ; preds = %58
  tail call void @lean_dec_ref_cold(ptr noundef nonnull %0) #3
  br label %lean_dec.exit

lean_dec.exit:                                    ; preds = %59, %58, %56, %lean_dec.exit5
  ret ptr %.0.i
}